; Function Attrs: mustprogress nounwind uwtable
define dso_local { ptr, i64 } @_ZN4llvm28getPGOFuncNameVarInitializerEPNS_14GlobalVariableE(ptr noundef readonly captures(none) %0) local_unnamed_addr #0 {
  %2 = getelementptr inbounds i8, ptr %0, i64 -32
  %3 = load ptr, ptr %2, align 8
  %4 = tail call noundef zeroext i1 @_ZNK4llvm22ConstantDataSequential9isCStringEv(ptr noundef nonnull align 8 dereferenceable(40) %3) #28
  %5 = tail call { ptr, i64 } @_ZNK4llvm22ConstantDataSequential16getRawDataValuesEv(ptr noundef nonnull align 8 dereferenceable(40) %3) #28
  br i1 %4, label %6, label %9

6:                                                ; preds = %1
  %7 = extractvalue { ptr, i64 } %5, 1
  %8 = add i64 %7, -1
  %.sroa.speculated.i.i = tail call i64 @llvm.umin.i64(i64 %7, i64 %8)
  %.fca.1.insert.i.i = insertvalue { ptr, i64 } %5, i64 %.sroa.speculated.i.i, 1
  br label %9

9:                                                ; preds = %1, %6
  %.pn = phi { ptr, i64 } [ %.fca.1.insert.i.i, %6 ], [ %5, %1 ]
  ret { ptr, i64 } %.pn
}